; Function Attrs: mustprogress nofree nounwind willreturn memory(read, inaccessiblemem: none) uwtable
define hidden noundef zeroext i1 @_ZNK2cv10HdrDecoder14checkSignatureERKNSt7__cxx1112basic_stringIcSt11char_traitsIcESaIcEEE(ptr noundef nonnull readonly align 8 captures(none) dereferenceable(408) %0, ptr noundef nonnull readonly align 8 captures(none) dereferenceable(32) %1) unnamed_addr #12 align 2 personality ptr @__gxx_personality_v0 {
  %3 = getelementptr inbounds nuw i8, ptr %1, i64 8
  %4 = load i64, ptr %3, align 8, !tbaa !11
  %5 = getelementptr inbounds nuw i8, ptr %0, i64 64
  %6 = load i64, ptr %5, align 8, !tbaa !11
  %.not = icmp ult i64 %4, %6
  br i1 %.not, label %12, label %7

7:                                                ; preds = %2
  %8 = getelementptr inbounds nuw i8, ptr %0, i64 56
  %9 = load ptr, ptr %1, align 8, !tbaa !57
  %10 = load ptr, ptr %8, align 8, !tbaa !57
  %bcmp = tail call i32 @bcmp(ptr %9, ptr %10, i64 %6)
  %11 = icmp eq i32 %bcmp, 0
  br i1 %11, label %21, label %12

12:                                               ; preds = %7, %2
  %13 = getelementptr inbounds nuw i8, ptr %0, i64 376
  %14 = load i64, ptr %13, align 8, !tbaa !11
  %.not6 = icmp ult i64 %4, %14
  br i1 %.not6, label %20, label %15

15:                                               ; preds = %12
  %16 = getelementptr inbounds nuw i8, ptr %0, i64 368
  %17 = load ptr, ptr %1, align 8, !tbaa !57
  %18 = load ptr, ptr %16, align 8, !tbaa !57
  %bcmp7 = tail call i32 @bcmp(ptr %17, ptr %18, i64 %14)
  %19 = icmp eq i32 %bcmp7, 0
  br i1 %19, label %21, label %20

20:                                               ; preds = %15, %12
  br label %21

21:                                               ; preds = %15, %7, %20
  %.0 = phi i1 [ false, %20 ], [ true, %7 ], [ true, %15 ]
  ret i1 %.0
}